; Function Attrs: mustprogress nofree norecurse nosync nounwind memory(read, argmem: readwrite, inaccessiblemem: none) uwtable
define void @_ZN3g2o17JacobianWorkspace10updateSizeEPKNS_10HyperGraph4EdgeE(ptr noundef nonnull align 8 captures(none) dereferenceable(32) %0, ptr noundef readonly captures(none) %1) local_unnamed_addr #8 align 2 {
  %3 = getelementptr inbounds nuw i8, ptr %1, i64 56
  %4 = load i32, ptr %3, align 8, !tbaa !31
  %5 = getelementptr inbounds nuw i8, ptr %1, i64 8
  %6 = getelementptr inbounds nuw i8, ptr %1, i64 16
  %7 = load ptr, ptr %6, align 8, !tbaa !59
  %8 = load ptr, ptr %5, align 8, !tbaa !60
  %.not25 = icmp eq ptr %8, %7
  br i1 %.not25, label %._crit_edge, label %.lr.ph

._crit_edge:                                      ; preds = %.lr.ph, %2
  %.0.lcssa = phi i32 [ -1, %2 ], [ %.sroa.speculated, %.lr.ph ]
  %9 = ptrtoint ptr %7 to i64
  %10 = ptrtoint ptr %8 to i64
  %11 = sub i64 %9, %10
  %12 = lshr exact i64 %11, 3
  %13 = trunc i64 %12 to i32
  %14 = getelementptr inbounds nuw i8, ptr %0, i64 24
  %15 = load i32, ptr %14, align 8, !tbaa !79
  %.sroa.speculated22 = tail call i32 @llvm.smax.i32(i32 %15, i32 %13)
  store i32 %.sroa.speculated22, ptr %14, align 8, !tbaa !3
  %16 = getelementptr inbounds nuw i8, ptr %0, i64 28
  %17 = load i32, ptr %16, align 4, !tbaa !79
  %.sroa.speculated17 = tail call i32 @llvm.smax.i32(i32 %.0.lcssa, i32 %17)
  store i32 %.sroa.speculated17, ptr %16, align 4, !tbaa !14
  ret void

.lr.ph:                                           ; preds = %2, %.lr.ph
  %.027 = phi i32 [ %.sroa.speculated, %.lr.ph ], [ -1, %2 ]
  %.sroa.012.026 = phi ptr [ %22, %.lr.ph ], [ %8, %2 ]
  %18 = load ptr, ptr %.sroa.012.026, align 8, !tbaa !61
  %19 = getelementptr inbounds nuw i8, ptr %18, i64 104
  %20 = load i32, ptr %19, align 8, !tbaa !63
  %21 = mul nsw i32 %20, %4
  %.sroa.speculated = tail call i32 @llvm.smax.i32(i32 %21, i32 %.027)
  %22 = getelementptr inbounds nuw i8, ptr %.sroa.012.026, i64 8
  %.not = icmp eq ptr %22, %7
  br i1 %.not, label %._crit_edge, label %.lr.ph
}